Certificate:
    Data:
        Version: 3 (0x2)
        Serial Number: 5 (0x5)
        Signature Algorithm: sha256WithRSAEncryption
        Issuer: DC=com, DC=example, O=Example Inc, OU=Example Root CA, CN=Example Root CA
        Validity
            Not Before: Apr 28 17:35:06 2023 GMT
            Not After : Apr  6 17:35:06 2123 GMT
        Subject: DC=com, DC=example, O=Example Inc, OU=Example Root CA, CN=Example Root CA
        Subject Public Key Info:
            Public Key Algorithm: rsaEncryption
                Public-Key: (2048 bit)
                Modulus:
                    00:e4:20:33:69:2c:d1:4f:6c:dc:cb:2a:65:7b:11:
                    45:cb:e7:17:c3:e8:9d:b3:29:79:a0:0e:6d:b0:f5:
                    21:77:67:a8:da:f5:28:fc:b5:e1:e2:68:41:41:a8:
                    2c:e9:5b:f8:46:15:3d:39:39:c7:12:8c:0c:8c:b1:
                    ef:68:b3:7a:b0:d8:fe:d9:3f:a0:3c:e8:3a:70:bb:
                    f9:df:35:0b:9a:87:2f:66:d5:27:2b:be:a4:b7:cc:
                    6a:bf:34:c8:fc:00:9d:01:fc:f4:ec:22:6a:11:e8:
                    af:ef:96:43:c7:55:60:df:52:a2:25:b8:dc:28:0c:
                    59:6f:f6:9d:82:8a:54:68:f7:c5:f4:eb:6d:5f:5b:
                    25:75:bc:cf:27:99:24:aa:4d:fe:f5:52:c0:6b:d5:
                    5e:73:d6:c1:d6:61:ec:12:31:57:26:72:43:21:37:
                    f8:30:7f:da:11:d0:a4:08:77:8c:f2:5b:85:99:31:
                    fa:4f:b2:d2:d6:e6:78:27:f4:61:f9:f3:4f:6b:c8:
                    4f:1d:41:e1:16:f9:66:dd:42:d4:79:16:05:6c:5a:
                    5e:81:2c:d2:d5:37:f6:f5:25:67:53:3b:fa:d6:6d:
                    ca:53:a6:8b:fc:18:bd:2e:70:4a:40:e6:45:70:13:
                    48:d7:c1:91:fc:ff:38:24:69:1e:b5:5a:3b:49:d4:
                    0f:c1
                Exponent: 65537 (0x10001)
        X509v3 extensions:
            X509v3 Key Usage: critical
                Certificate Sign, CRL Sign
            X509v3 Basic Constraints: critical
                CA:TRUE
            X509v3 Subject Key Identifier: 
                1F:E4:A9:4C:C6:40:60:47:F3:82:CF:02:C5:8D:00:05:CC:99:56:7E
            X509v3 Authority Key Identifier: 
                1F:E4:A9:4C:C6:40:60:47:F3:82:CF:02:C5:8D:00:05:CC:99:56:7E
    Signature Algorithm: sha256WithRSAEncryption
    Signature Value:
        b5:3e:bd:a0:8e:86:0a:98:52:49:16:bd:12:86:cf:b0:4b:b7:
        62:49:d8:23:87:6b:cb:2a:dc:06:f7:83:22:1d:3c:25:3a:94:
        bf:28:92:f7:fd:bb:80:33:a7:35:58:e0:49:cc:50:c7:c7:c8:
        a0:ab:d2:5b:49:1c:8e:76:2c:76:56:cc:7b:07:0b:d8:e8:2b:
        64:e4:08:9e:63:ae:57:28:cf:94:ea:7e:d0:b5:7e:98:c8:6d:
        24:e0:22:c0:3a:5a:12:c4:0b:ba:ca:fc:e9:49:a0:ad:ed:ab:
        ac:25:ea:36:0f:42:12:30:23:8a:f6:86:2b:f2:3b:ad:de:29:
        b3:62:bc:d1:fc:1d:9f:0b:53:aa:c5:40:19:aa:a5:37:40:7b:
        39:b8:38:0f:d1:3b:15:66:e0:96:5e:36:cf:c1:f4:e3:d0:c4:
        64:70:fc:ad:d8:14:65:7d:3e:17:f2:1d:ba:a7:46:c7:c6:0b:
        85:aa:fd:6e:a6:02:3e:a7:81:c6:ea:42:be:0c:da:9b:a1:a5:
        be:4d:10:e8:d5:ef:5b:bc:6b:bb:d8:de:59:ad:78:d3:b9:28:
        76:7e:36:31:cd:c4:ee:1e:98:20:54:16:f3:2c:3e:4f:82:53:
        e5:99:58:e3:54:b8:12:27:7c:ff:e1:46:5f:76:6c:f1:a6:69:
        c6:ad:df:2f
-----BEGIN CERTIFICATE-----
MIID0DCCArigAwIBAgIBBTANBgkqhkiG9w0BAQsFADB4MRMwEQYKCZImiZPyLGQB
GRYDY29tMRcwFQYKCZImiZPyLGQBGRYHZXhhbXBsZTEUMBIGA1UECgwLRXhhbXBs
ZSBJbmMxGDAWBgNVBAsMD0V4YW1wbGUgUm9vdCBDQTEYMBYGA1UEAwwPRXhhbXBs
ZSBSb290IENBMCAXDTIzMDQyODE3MzUwNloYDzIxMjMwNDA2MTczNTA2WjB4MRMw
EQYKCZImiZPyLGQBGRYDY29tMRcwFQYKCZImiZPyLGQBGRYHZXhhbXBsZTEUMBIG
A1UECgwLRXhhbXBsZSBJbmMxGDAWBgNVBAsMD0V4YW1wbGUgUm9vdCBDQTEYMBYG
A1UEAwwPRXhhbXBsZSBSb290IENBMIIBIjANBgkqhkiG9w0BAQEFAAOCAQ8AMIIB
CgKCAQEA5CAzaSzRT2zcyyplexFFy+cXw+idsyl5oA5tsPUhd2eo2vUo/LXh4mhB
Qags6Vv4RhU9OTnHEowMjLHvaLN6sNj+2T+gPOg6cLv53zULmocvZtUnK76kt8xq
vzTI/ACdAfz07CJqEeiv75ZDx1Vg31KiJbjcKAxZb/adgopUaPfF9OttX1sldbzP
J5kkqk3+9VLAa9Vec9bB1mHsEjFXJnJDITf4MH/aEdCkCHeM8luFmTH6T7LS1uZ4
J/Rh+fNPa8hPHUHhFvlm3ULUeRYFbFpegSzS1Tf29SVnUzv61m3KU6aL/Bi9LnBK
QOZFcBNI18GR/P84JGketVo7SdQPwQIDAQABo2MwYTAOBgNVHQ8BAf8EBAMCAQYw
DwYDVR0TAQH/BAUwAwEB/zAdBgNVHQ4EFgQUH+SpTMZAYEfzgs8CxY0ABcyZVn4w
HwYDVR0jBBgwFoAUH+SpTMZAYEfzgs8CxY0ABcyZVn4wDQYJKoZIhvcNAQELBQAD
ggEBALU+vaCOhgqYUkkWvRKGz7BLt2JJ2COHa8sq3Ab3gyIdPCU6lL8okvf9u4Az
pzVY4EnMUMfHyKCr0ltJHI52LHZWzHsHC9joK2TkCJ5jrlcoz5TqftC1fpjIbSTg
IsA6WhLEC7rK/OlJoK3tq6wl6jYPQhIwI4r2hivyO63eKbNivNH8HZ8LU6rFQBmq
pTdAezm4OA/ROxVm4JZeNs/B9OPQxGRw/K3YFGV9PhfyHbqnRsfGC4Wq/W6mAj6n
gcbqQr4M2puhpb5NEOjV71u8a7vY3lmteNO5KHZ+NjHNxO4emCBUFvMsPk+CU+WZ
WONUuBInfP/hRl92bPGmacat3y8=
-----END CERTIFICATE-----
